target datalayout = "e-m:e-p270:32:32-p271:32:32-p272:64:64-i64:64-i128:128-f80:128-n8:16:32:64-S128"
target triple = "x86_64-pc-linux-gnu"

%"struct.clang::RISCV::PrototypeDescriptor" = type { i8, i8, i8 }
%"struct.std::_Rb_tree_header" = type { %"struct.std::_Rb_tree_node_base", i64 }
%"struct.std::_Rb_tree_node_base" = type { i32, ptr, ptr, ptr }
%"class.llvm::SmallVectorBase.142" = type { ptr, i64, i64 }
%"class.std::_Rb_tree.186" = type { %"struct.std::_Rb_tree<llvm::SmallVector<clang::RISCV::PrototypeDescriptor>, llvm::SmallVector<clang::RISCV::PrototypeDescriptor>, std::_Identity<llvm::SmallVector<clang::RISCV::PrototypeDescriptor>>, Compare>::_Rb_tree_impl" }
%"struct.std::_Rb_tree<llvm::SmallVector<clang::RISCV::PrototypeDescriptor>, llvm::SmallVector<clang::RISCV::PrototypeDescriptor>, std::_Identity<llvm::SmallVector<clang::RISCV::PrototypeDescriptor>>, Compare>::_Rb_tree_impl" = type { [8 x i8], %"struct.std::_Rb_tree_header" }
%"struct.std::_Rb_tree_node.200" = type { %"struct.std::_Rb_tree_node_base", %"struct.__gnu_cxx::__aligned_membuf.201" }
%"struct.__gnu_cxx::__aligned_membuf.201" = type { [64 x i8] }

; Function Attrs: mustprogress nounwind uwtable
define linkonce_odr hidden noundef ptr @_ZNK4llvm25SmallVectorTemplateCommonIN5clang5RISCV19PrototypeDescriptorEvE10getFirstElEv(ptr noundef nonnull align 8 dereferenceable(24) %0) #0 comdat align 2 {
  %2 = alloca ptr, align 8
  store ptr %0, ptr %2, align 8
  %3 = load ptr, ptr %2, align 8
  %4 = getelementptr inbounds i8, ptr %3, i64 24
  ret ptr %4
}

; Function Attrs: mustprogress nounwind uwtable
define linkonce_odr hidden noundef zeroext i1 @_ZNK4llvm25SmallVectorTemplateCommonIN5clang5RISCV19PrototypeDescriptorEvE7isSmallEv(ptr noundef nonnull align 8 dereferenceable(24) %0) #0 comdat align 2 {
  %2 = alloca ptr, align 8
  store ptr %0, ptr %2, align 8
  %3 = load ptr, ptr %2, align 8
  %4 = getelementptr inbounds nuw %"class.llvm::SmallVectorBase.142", ptr %3, i32 0, i32 0
  %5 = load ptr, ptr %4, align 8
  %6 = call noundef ptr @_ZNK4llvm25SmallVectorTemplateCommonIN5clang5RISCV19PrototypeDescriptorEvE10getFirstElEv(ptr noundef nonnull align 8 dereferenceable(24) %3)
  %7 = icmp eq ptr %5, %6
  ret i1 %7
}

; Function Attrs: mustprogress nounwind uwtable
define linkonce_odr hidden void @_ZN4llvm15SmallVectorImplIN5clang5RISCV19PrototypeDescriptorEED2Ev(ptr noundef nonnull align 8 dereferenceable(24) %0) unnamed_addr #0 comdat align 2 {
  %2 = alloca ptr, align 8
  store ptr %0, ptr %2, align 8
  %3 = load ptr, ptr %2, align 8
  %4 = call noundef zeroext i1 @_ZNK4llvm25SmallVectorTemplateCommonIN5clang5RISCV19PrototypeDescriptorEvE7isSmallEv(ptr noundef nonnull align 8 dereferenceable(24) %3)
  br i1 %4, label %7, label %5

5:                                                ; preds = %1
  %6 = call noundef ptr @_ZN4llvm25SmallVectorTemplateCommonIN5clang5RISCV19PrototypeDescriptorEvE5beginEv(ptr noundef nonnull align 8 dereferenceable(24) %3)
  call void @free(ptr noundef %6) #4
  br label %7

7:                                                ; preds = %5, %1
  ret void
}

; Function Attrs: mustprogress nounwind uwtable
define linkonce_odr hidden void @_ZN4llvm23SmallVectorTemplateBaseIN5clang5RISCV19PrototypeDescriptorELb1EE13destroy_rangeEPS3_S5_(ptr noundef %0, ptr noundef %1) #0 comdat align 2 {
  %3 = alloca ptr, align 8
  %4 = alloca ptr, align 8
  store ptr %0, ptr %3, align 8
  store ptr %1, ptr %4, align 8
  ret void
}

; Function Attrs: mustprogress nounwind uwtable
define linkonce_odr hidden noundef ptr @_ZN4llvm25SmallVectorTemplateCommonIN5clang5RISCV19PrototypeDescriptorEvE3endEv(ptr noundef nonnull align 8 dereferenceable(24) %0) #0 comdat align 2 {
  %2 = alloca ptr, align 8
  store ptr %0, ptr %2, align 8
  %3 = load ptr, ptr %2, align 8
  %4 = call noundef ptr @_ZN4llvm25SmallVectorTemplateCommonIN5clang5RISCV19PrototypeDescriptorEvE5beginEv(ptr noundef nonnull align 8 dereferenceable(24) %3)
  %5 = call noundef i64 @_ZNK4llvm15SmallVectorBaseImE4sizeEv(ptr noundef nonnull align 8 dereferenceable(24) %3)
  %6 = getelementptr inbounds %"struct.clang::RISCV::PrototypeDescriptor", ptr %4, i64 %5
  ret ptr %6
}

; Function Attrs: mustprogress nounwind uwtable
define linkonce_odr hidden noundef ptr @_ZN4llvm25SmallVectorTemplateCommonIN5clang5RISCV19PrototypeDescriptorEvE5beginEv(ptr noundef nonnull align 8 dereferenceable(24) %0) #0 comdat align 2 {
  %2 = alloca ptr, align 8
  store ptr %0, ptr %2, align 8
  %3 = load ptr, ptr %2, align 8
  %4 = getelementptr inbounds nuw %"class.llvm::SmallVectorBase.142", ptr %3, i32 0, i32 0
  %5 = load ptr, ptr %4, align 8
  ret ptr %5
}

; Function Attrs: mustprogress nounwind uwtable
define linkonce_odr hidden void @_ZN4llvm11SmallVectorIN5clang5RISCV19PrototypeDescriptorELj13EED2Ev(ptr noundef nonnull align 8 dereferenceable(63) %0) unnamed_addr #0 comdat align 2 {
  %2 = alloca ptr, align 8
  store ptr %0, ptr %2, align 8
  %3 = load ptr, ptr %2, align 8
  %4 = call noundef ptr @_ZN4llvm25SmallVectorTemplateCommonIN5clang5RISCV19PrototypeDescriptorEvE5beginEv(ptr noundef nonnull align 8 dereferenceable(24) %3)
  %5 = call noundef ptr @_ZN4llvm25SmallVectorTemplateCommonIN5clang5RISCV19PrototypeDescriptorEvE3endEv(ptr noundef nonnull align 8 dereferenceable(24) %3)
  call void @_ZN4llvm23SmallVectorTemplateBaseIN5clang5RISCV19PrototypeDescriptorELb1EE13destroy_rangeEPS3_S5_(ptr noundef %4, ptr noundef %5)
  call void @_ZN4llvm15SmallVectorImplIN5clang5RISCV19PrototypeDescriptorEED2Ev(ptr noundef nonnull align 8 dereferenceable(24) %3) #4
  ret void
}

; Function Attrs: mustprogress nounwind uwtable
define linkonce_odr hidden noundef ptr @_ZN9__gnu_cxx16__aligned_membufIN4llvm11SmallVectorIN5clang5RISCV19PrototypeDescriptorELj13EEEE7_M_addrEv(ptr noundef nonnull align 8 dereferenceable(64) %0) #0 comdat align 2 {
  %2 = alloca ptr, align 8
  store ptr %0, ptr %2, align 8
  %3 = load ptr, ptr %2, align 8
  %4 = getelementptr inbounds nuw %"struct.__gnu_cxx::__aligned_membuf.201", ptr %3, i32 0, i32 0
  ret ptr %4
}

; Function Attrs: mustprogress nounwind uwtable
define linkonce_odr hidden void @_ZNSt15__new_allocatorISt13_Rb_tree_nodeIN4llvm11SmallVectorIN5clang5RISCV19PrototypeDescriptorELj13EEEEE10deallocateEPS7_m(ptr noundef nonnull align 1 dereferenceable(1) %0, ptr noundef %1, i64 noundef %2) #0 comdat align 2 {
  %4 = alloca ptr, align 8
  %5 = alloca ptr, align 8
  %6 = alloca i64, align 8
  store ptr %0, ptr %4, align 8
  store ptr %1, ptr %5, align 8
  store i64 %2, ptr %6, align 8
  %7 = load ptr, ptr %5, align 8
  %8 = load i64, ptr %6, align 8
  %9 = mul i64 %8, 96
  call void @_ZdlPvm(ptr noundef %7, i64 noundef %9) #13
  ret void
}

; Function Attrs: mustprogress nounwind uwtable
define linkonce_odr hidden void @_ZNSt15__new_allocatorISt13_Rb_tree_nodeIN4llvm11SmallVectorIN5clang5RISCV19PrototypeDescriptorELj13EEEEE7destroyIS6_EEvPT_(ptr noundef nonnull align 1 dereferenceable(1) %0, ptr noundef %1) #0 comdat align 2 {
  %3 = alloca ptr, align 8
  %4 = alloca ptr, align 8
  store ptr %0, ptr %3, align 8
  store ptr %1, ptr %4, align 8
  %5 = load ptr, ptr %4, align 8
  call void @_ZN4llvm11SmallVectorIN5clang5RISCV19PrototypeDescriptorELj13EED2Ev(ptr noundef nonnull align 8 dereferenceable(63) %5) #4
  ret void
}

; Function Attrs: mustprogress nounwind uwtable
define linkonce_odr hidden noundef ptr @_ZN9__gnu_cxx16__aligned_membufIN4llvm11SmallVectorIN5clang5RISCV19PrototypeDescriptorELj13EEEE6_M_ptrEv(ptr noundef nonnull align 8 dereferenceable(64) %0) #0 comdat align 2 {
  %2 = alloca ptr, align 8
  store ptr %0, ptr %2, align 8
  %3 = load ptr, ptr %2, align 8
  %4 = call noundef ptr @_ZN9__gnu_cxx16__aligned_membufIN4llvm11SmallVectorIN5clang5RISCV19PrototypeDescriptorELj13EEEE7_M_addrEv(ptr noundef nonnull align 8 dereferenceable(64) %3) #4
  ret ptr %4
}

; Function Attrs: mustprogress nounwind uwtable
define linkonce_odr hidden void @_ZNSt16allocator_traitsISaISt13_Rb_tree_nodeIN4llvm11SmallVectorIN5clang5RISCV19PrototypeDescriptorELj13EEEEEE10deallocateERS8_PS7_m(ptr noundef nonnull align 1 dereferenceable(1) %0, ptr noundef %1, i64 noundef %2) #0 comdat align 2 {
  %4 = alloca ptr, align 8
  %5 = alloca ptr, align 8
  %6 = alloca i64, align 8
  store ptr %0, ptr %4, align 8
  store ptr %1, ptr %5, align 8
  store i64 %2, ptr %6, align 8
  %7 = load ptr, ptr %4, align 8
  %8 = load ptr, ptr %5, align 8
  %9 = load i64, ptr %6, align 8
  call void @_ZNSt15__new_allocatorISt13_Rb_tree_nodeIN4llvm11SmallVectorIN5clang5RISCV19PrototypeDescriptorELj13EEEEE10deallocateEPS7_m(ptr noundef nonnull align 1 dereferenceable(1) %7, ptr noundef %8, i64 noundef %9)
  ret void
}

; Function Attrs: mustprogress nounwind uwtable
define linkonce_odr hidden void @_ZNSt16allocator_traitsISaISt13_Rb_tree_nodeIN4llvm11SmallVectorIN5clang5RISCV19PrototypeDescriptorELj13EEEEEE7destroyIS6_EEvRS8_PT_(ptr noundef nonnull align 1 dereferenceable(1) %0, ptr noundef %1) #0 comdat align 2 {
  %3 = alloca ptr, align 8
  %4 = alloca ptr, align 8
  store ptr %0, ptr %3, align 8
  store ptr %1, ptr %4, align 8
  %5 = load ptr, ptr %3, align 8
  %6 = load ptr, ptr %4, align 8
  call void @_ZNSt15__new_allocatorISt13_Rb_tree_nodeIN4llvm11SmallVectorIN5clang5RISCV19PrototypeDescriptorELj13EEEEE7destroyIS6_EEvPT_(ptr noundef nonnull align 1 dereferenceable(1) %5, ptr noundef %6) #4
  ret void
}

; Function Attrs: mustprogress nounwind uwtable
define linkonce_odr hidden noundef ptr @_ZNSt13_Rb_tree_nodeIN4llvm11SmallVectorIN5clang5RISCV19PrototypeDescriptorELj13EEEE9_M_valptrEv(ptr noundef nonnull align 8 dereferenceable(96) %0) #0 comdat align 2 {
  %2 = alloca ptr, align 8
  store ptr %0, ptr %2, align 8
  %3 = load ptr, ptr %2, align 8
  %4 = getelementptr inbounds nuw %"struct.std::_Rb_tree_node.200", ptr %3, i32 0, i32 1
  %5 = call noundef ptr @_ZN9__gnu_cxx16__aligned_membufIN4llvm11SmallVectorIN5clang5RISCV19PrototypeDescriptorELj13EEEE6_M_ptrEv(ptr noundef nonnull align 8 dereferenceable(64) %4) #4
  ret ptr %5
}

; Function Attrs: mustprogress nounwind uwtable
define internal noundef nonnull align 1 dereferenceable(1) ptr @_ZNSt8_Rb_treeIN4llvm11SmallVectorIN5clang5RISCV19PrototypeDescriptorELj13EEES5_St9_IdentityIS5_EZN12_GLOBAL__N_118SemaSignatureTable4initENS0_8ArrayRefINS8_10SemaRecordEEEE7CompareSaIS5_EE21_M_get_Node_allocatorEv(ptr noundef nonnull align 8 dereferenceable(48) %0) #0 align 2 {
  %2 = alloca ptr, align 8
  store ptr %0, ptr %2, align 8
  %3 = load ptr, ptr %2, align 8
  %4 = getelementptr inbounds nuw %"class.std::_Rb_tree.186", ptr %3, i32 0, i32 0
  ret ptr %4
}

; Function Attrs: mustprogress nounwind uwtable
define internal void @_ZNSt8_Rb_treeIN4llvm11SmallVectorIN5clang5RISCV19PrototypeDescriptorELj13EEES5_St9_IdentityIS5_EZN12_GLOBAL__N_118SemaSignatureTable4initENS0_8ArrayRefINS8_10SemaRecordEEEE7CompareSaIS5_EE11_M_put_nodeEPSt13_Rb_tree_nodeIS5_E(ptr noundef nonnull align 8 dereferenceable(48) %0, ptr noundef %1) #0 align 2 {
  %3 = alloca ptr, align 8
  %4 = alloca ptr, align 8
  store ptr %0, ptr %3, align 8
  store ptr %1, ptr %4, align 8
  %5 = load ptr, ptr %3, align 8
  %6 = call noundef nonnull align 1 dereferenceable(1) ptr @_ZNSt8_Rb_treeIN4llvm11SmallVectorIN5clang5RISCV19PrototypeDescriptorELj13EEES5_St9_IdentityIS5_EZN12_GLOBAL__N_118SemaSignatureTable4initENS0_8ArrayRefINS8_10SemaRecordEEEE7CompareSaIS5_EE21_M_get_Node_allocatorEv(ptr noundef nonnull align 8 dereferenceable(48) %5) #4
  %7 = load ptr, ptr %4, align 8
  call void @_ZNSt16allocator_traitsISaISt13_Rb_tree_nodeIN4llvm11SmallVectorIN5clang5RISCV19PrototypeDescriptorELj13EEEEEE10deallocateERS8_PS7_m(ptr noundef nonnull align 1 dereferenceable(1) %6, ptr noundef %7, i64 noundef 1)
  ret void
}

; Function Attrs: mustprogress nounwind uwtable
define internal void @_ZNSt8_Rb_treeIN4llvm11SmallVectorIN5clang5RISCV19PrototypeDescriptorELj13EEES5_St9_IdentityIS5_EZN12_GLOBAL__N_118SemaSignatureTable4initENS0_8ArrayRefINS8_10SemaRecordEEEE7CompareSaIS5_EE15_M_destroy_nodeEPSt13_Rb_tree_nodeIS5_E(ptr noundef nonnull align 8 dereferenceable(48) %0, ptr noundef %1) #0 align 2 {
  %3 = alloca ptr, align 8
  %4 = alloca ptr, align 8
  store ptr %0, ptr %3, align 8
  store ptr %1, ptr %4, align 8
  %5 = load ptr, ptr %3, align 8
  %6 = call noundef nonnull align 1 dereferenceable(1) ptr @_ZNSt8_Rb_treeIN4llvm11SmallVectorIN5clang5RISCV19PrototypeDescriptorELj13EEES5_St9_IdentityIS5_EZN12_GLOBAL__N_118SemaSignatureTable4initENS0_8ArrayRefINS8_10SemaRecordEEEE7CompareSaIS5_EE21_M_get_Node_allocatorEv(ptr noundef nonnull align 8 dereferenceable(48) %5) #4
  %7 = load ptr, ptr %4, align 8
  %8 = call noundef ptr @_ZNSt13_Rb_tree_nodeIN4llvm11SmallVectorIN5clang5RISCV19PrototypeDescriptorELj13EEEE9_M_valptrEv(ptr noundef nonnull align 8 dereferenceable(96) %7)
  call void @_ZNSt16allocator_traitsISaISt13_Rb_tree_nodeIN4llvm11SmallVectorIN5clang5RISCV19PrototypeDescriptorELj13EEEEEE7destroyIS6_EEvRS8_PT_(ptr noundef nonnull align 1 dereferenceable(1) %6, ptr noundef %8) #4
  ret void
}

; Function Attrs: mustprogress nounwind uwtable
define internal void @_ZNSt8_Rb_treeIN4llvm11SmallVectorIN5clang5RISCV19PrototypeDescriptorELj13EEES5_St9_IdentityIS5_EZN12_GLOBAL__N_118SemaSignatureTable4initENS0_8ArrayRefINS8_10SemaRecordEEEE7CompareSaIS5_EE12_M_drop_nodeEPSt13_Rb_tree_nodeIS5_E(ptr noundef nonnull align 8 dereferenceable(48) %0, ptr noundef %1) #0 align 2 {
  %3 = alloca ptr, align 8
  %4 = alloca ptr, align 8
  store ptr %0, ptr %3, align 8
  store ptr %1, ptr %4, align 8
  %5 = load ptr, ptr %3, align 8
  %6 = load ptr, ptr %4, align 8
  call void @_ZNSt8_Rb_treeIN4llvm11SmallVectorIN5clang5RISCV19PrototypeDescriptorELj13EEES5_St9_IdentityIS5_EZN12_GLOBAL__N_118SemaSignatureTable4initENS0_8ArrayRefINS8_10SemaRecordEEEE7CompareSaIS5_EE15_M_destroy_nodeEPSt13_Rb_tree_nodeIS5_E(ptr noundef nonnull align 8 dereferenceable(48) %5, ptr noundef %6) #4
  %7 = load ptr, ptr %4, align 8
  call void @_ZNSt8_Rb_treeIN4llvm11SmallVectorIN5clang5RISCV19PrototypeDescriptorELj13EEES5_St9_IdentityIS5_EZN12_GLOBAL__N_118SemaSignatureTable4initENS0_8ArrayRefINS8_10SemaRecordEEEE7CompareSaIS5_EE11_M_put_nodeEPSt13_Rb_tree_nodeIS5_E(ptr noundef nonnull align 8 dereferenceable(48) %5, ptr noundef %7) #4
  ret void
}

; Function Attrs: mustprogress nounwind uwtable
define internal noundef ptr @_ZNSt8_Rb_treeIN4llvm11SmallVectorIN5clang5RISCV19PrototypeDescriptorELj13EEES5_St9_IdentityIS5_EZN12_GLOBAL__N_118SemaSignatureTable4initENS0_8ArrayRefINS8_10SemaRecordEEEE7CompareSaIS5_EE7_S_leftEPSt18_Rb_tree_node_base(ptr noundef %0) #0 align 2 {
  %2 = alloca ptr, align 8
  store ptr %0, ptr %2, align 8
  %3 = load ptr, ptr %2, align 8
  %4 = getelementptr inbounds nuw %"struct.std::_Rb_tree_node_base", ptr %3, i32 0, i32 2
  %5 = load ptr, ptr %4, align 8
  ret ptr %5
}

; Function Attrs: mustprogress nounwind uwtable
define internal noundef ptr @_ZNSt8_Rb_treeIN4llvm11SmallVectorIN5clang5RISCV19PrototypeDescriptorELj13EEES5_St9_IdentityIS5_EZN12_GLOBAL__N_118SemaSignatureTable4initENS0_8ArrayRefINS8_10SemaRecordEEEE7CompareSaIS5_EE8_S_rightEPSt18_Rb_tree_node_base(ptr noundef %0) #0 align 2 {
  %2 = alloca ptr, align 8
  store ptr %0, ptr %2, align 8
  %3 = load ptr, ptr %2, align 8
  %4 = getelementptr inbounds nuw %"struct.std::_Rb_tree_node_base", ptr %3, i32 0, i32 3
  %5 = load ptr, ptr %4, align 8
  ret ptr %5
}

; Function Attrs: mustprogress nounwind uwtable
define internal void @_ZNSt8_Rb_treeIN4llvm11SmallVectorIN5clang5RISCV19PrototypeDescriptorELj13EEES5_St9_IdentityIS5_EZN12_GLOBAL__N_118SemaSignatureTable4initENS0_8ArrayRefINS8_10SemaRecordEEEE7CompareSaIS5_EE8_M_eraseEPSt13_Rb_tree_nodeIS5_E(ptr noundef nonnull align 8 dereferenceable(48) %0, ptr noundef %1) #0 align 2 {
  %3 = alloca ptr, align 8
  %4 = alloca ptr, align 8
  %5 = alloca ptr, align 8
  store ptr %0, ptr %3, align 8
  store ptr %1, ptr %4, align 8
  %6 = load ptr, ptr %3, align 8
  br label %7

7:                                                ; preds = %10, %2
  %8 = load ptr, ptr %4, align 8
  %9 = icmp ne ptr %8, null
  br i1 %9, label %10, label %17

10:                                               ; preds = %7
  %11 = load ptr, ptr %4, align 8
  %12 = call noundef ptr @_ZNSt8_Rb_treeIN4llvm11SmallVectorIN5clang5RISCV19PrototypeDescriptorELj13EEES5_St9_IdentityIS5_EZN12_GLOBAL__N_118SemaSignatureTable4initENS0_8ArrayRefINS8_10SemaRecordEEEE7CompareSaIS5_EE8_S_rightEPSt18_Rb_tree_node_base(ptr noundef %11) #4
  call void @_ZNSt8_Rb_treeIN4llvm11SmallVectorIN5clang5RISCV19PrototypeDescriptorELj13EEES5_St9_IdentityIS5_EZN12_GLOBAL__N_118SemaSignatureTable4initENS0_8ArrayRefINS8_10SemaRecordEEEE7CompareSaIS5_EE8_M_eraseEPSt13_Rb_tree_nodeIS5_E(ptr noundef nonnull align 8 dereferenceable(48) %6, ptr noundef %12)
  %13 = load ptr, ptr %4, align 8
  %14 = call noundef ptr @_ZNSt8_Rb_treeIN4llvm11SmallVectorIN5clang5RISCV19PrototypeDescriptorELj13EEES5_St9_IdentityIS5_EZN12_GLOBAL__N_118SemaSignatureTable4initENS0_8ArrayRefINS8_10SemaRecordEEEE7CompareSaIS5_EE7_S_leftEPSt18_Rb_tree_node_base(ptr noundef %13) #4
  store ptr %14, ptr %5, align 8
  %15 = load ptr, ptr %4, align 8
  call void @_ZNSt8_Rb_treeIN4llvm11SmallVectorIN5clang5RISCV19PrototypeDescriptorELj13EEES5_St9_IdentityIS5_EZN12_GLOBAL__N_118SemaSignatureTable4initENS0_8ArrayRefINS8_10SemaRecordEEEE7CompareSaIS5_EE12_M_drop_nodeEPSt13_Rb_tree_nodeIS5_E(ptr noundef nonnull align 8 dereferenceable(48) %6, ptr noundef %15) #4
  %16 = load ptr, ptr %5, align 8
  store ptr %16, ptr %4, align 8
  br label %7, !llvm.loop !45

17:                                               ; preds = %7
  ret void
}