; Function Attrs: mustprogress nounwind uwtable
define internal fastcc void @_ZNSt8_Rb_treeIN4llvm11SmallVectorIN5clang5RISCV19PrototypeDescriptorELj13EEES5_St9_IdentityIS5_EZN12_GLOBAL__N_118SemaSignatureTable4initENS0_8ArrayRefINS8_10SemaRecordEEEE7CompareSaIS5_EE8_M_eraseEPSt13_Rb_tree_nodeIS5_E(ptr noundef %0) unnamed_addr #0 align 2 {
  %.not1 = icmp eq ptr %0, null
  br i1 %.not1, label %._crit_edge, label %.lr.ph

.lr.ph:                                           ; preds = %1, %_ZNSt8_Rb_treeIN4llvm11SmallVectorIN5clang5RISCV19PrototypeDescriptorELj13EEES5_St9_IdentityIS5_EZN12_GLOBAL__N_118SemaSignatureTable4initENS0_8ArrayRefINS8_10SemaRecordEEEE7CompareSaIS5_EE12_M_drop_nodeEPSt13_Rb_tree_nodeIS5_E.exit
  %.02 = phi ptr [ %.0.val, %_ZNSt8_Rb_treeIN4llvm11SmallVectorIN5clang5RISCV19PrototypeDescriptorELj13EEES5_St9_IdentityIS5_EZN12_GLOBAL__N_118SemaSignatureTable4initENS0_8ArrayRefINS8_10SemaRecordEEEE7CompareSaIS5_EE12_M_drop_nodeEPSt13_Rb_tree_nodeIS5_E.exit ], [ %0, %1 ]
  %2 = getelementptr i8, ptr %.02, i64 24
  %.0.val6 = load ptr, ptr %2, align 8
  tail call fastcc void @_ZNSt8_Rb_treeIN4llvm11SmallVectorIN5clang5RISCV19PrototypeDescriptorELj13EEES5_St9_IdentityIS5_EZN12_GLOBAL__N_118SemaSignatureTable4initENS0_8ArrayRefINS8_10SemaRecordEEEE7CompareSaIS5_EE8_M_eraseEPSt13_Rb_tree_nodeIS5_E(ptr noundef %.0.val6)
  %3 = getelementptr i8, ptr %.02, i64 16
  %.0.val = load ptr, ptr %3, align 8
  %4 = getelementptr inbounds nuw i8, ptr %.02, i64 32
  %5 = tail call noundef i64 @_ZNK4llvm15SmallVectorBaseImE4sizeEv(ptr noundef nonnull align 8 dereferenceable(63) %4) #18
  %6 = load ptr, ptr %4, align 8
  %7 = getelementptr inbounds nuw i8, ptr %.02, i64 56
  %8 = icmp eq ptr %6, %7
  br i1 %8, label %_ZNSt8_Rb_treeIN4llvm11SmallVectorIN5clang5RISCV19PrototypeDescriptorELj13EEES5_St9_IdentityIS5_EZN12_GLOBAL__N_118SemaSignatureTable4initENS0_8ArrayRefINS8_10SemaRecordEEEE7CompareSaIS5_EE12_M_drop_nodeEPSt13_Rb_tree_nodeIS5_E.exit, label %9

9:                                                ; preds = %.lr.ph
  tail call void @free(ptr noundef %6) #18
  br label %_ZNSt8_Rb_treeIN4llvm11SmallVectorIN5clang5RISCV19PrototypeDescriptorELj13EEES5_St9_IdentityIS5_EZN12_GLOBAL__N_118SemaSignatureTable4initENS0_8ArrayRefINS8_10SemaRecordEEEE7CompareSaIS5_EE12_M_drop_nodeEPSt13_Rb_tree_nodeIS5_E.exit

_ZNSt8_Rb_treeIN4llvm11SmallVectorIN5clang5RISCV19PrototypeDescriptorELj13EEES5_St9_IdentityIS5_EZN12_GLOBAL__N_118SemaSignatureTable4initENS0_8ArrayRefINS8_10SemaRecordEEEE7CompareSaIS5_EE12_M_drop_nodeEPSt13_Rb_tree_nodeIS5_E.exit: ; preds = %.lr.ph, %9
  tail call void @_ZdlPvm(ptr noundef nonnull %.02, i64 noundef 96) #19
  %.not = icmp eq ptr %.0.val, null
  br i1 %.not, label %._crit_edge, label %.lr.ph, !llvm.loop !96

._crit_edge:                                      ; preds = %_ZNSt8_Rb_treeIN4llvm11SmallVectorIN5clang5RISCV19PrototypeDescriptorELj13EEES5_St9_IdentityIS5_EZN12_GLOBAL__N_118SemaSignatureTable4initENS0_8ArrayRefINS8_10SemaRecordEEEE7CompareSaIS5_EE12_M_drop_nodeEPSt13_Rb_tree_nodeIS5_E.exit, %1
  ret void
}